target datalayout = "e-m:e-p270:32:32-p271:32:32-p272:64:64-i64:64-i128:128-f80:128-n8:16:32:64-S128"
target triple = "x86_64-pc-linux-gnu"

%struct.IDAMemRec = type { ptr, double, ptr, ptr, i32, double, double, ptr, i32, i32, ptr, ptr, i32, i32, i32, ptr, ptr, i32, i32, double, double, ptr, i32, i32, i32, i32, ptr, ptr, i32, ptr, ptr, ptr, i32, double, i32, i32, double, ptr, ptr, ptr, i32, ptr, ptr, i32, i32, i32, double, ptr, ptr, ptr, [6 x ptr], [6 x double], [6 x double], [6 x double], [6 x double], [6 x double], ptr, ptr, ptr, ptr, ptr, ptr, ptr, ptr, ptr, ptr, ptr, ptr, ptr, ptr, ptr, ptr, ptr, [6 x ptr], ptr, ptr, ptr, ptr, [6 x ptr], ptr, ptr, ptr, ptr, ptr, ptr, ptr, ptr, ptr, ptr, ptr, ptr, ptr, ptr, ptr, ptr, [6 x ptr], ptr, ptr, ptr, ptr, ptr, double, ptr, ptr, i32, i32, i32, i32, i32, i32, i32, i32, double, double, double, i32, double, i32, i32, i32, i32, i32, double, double, double, double, double, double, double, double, double, double, double, double, double, double, double, double, double, i32, i32, i32, i32, i64, double, double, double, double, double, double, double, double, double, i64, i64, i64, i64, i64, i64, i64, i64, i64, i64, i64, i64, i64, i64, i64, i64, i64, i64, i64, i64, i64, i64, i64, i64, i64, i64, double, i32, i32, i32, i32, i32, i32, i32, i32, i32, i32, i32, i32, i32, ptr, i32, ptr, i32, ptr, i32, ptr, ptr, ptr, ptr, ptr, ptr, i32, i32, ptr, ptr, ptr, ptr, ptr, ptr, ptr, double, i32, i32, ptr, i32, ptr, ptr, double, double, double, ptr, ptr, ptr, double, double, i32, i32, i64, ptr, i32, ptr, [5 x double], ptr, ptr, i32, ptr, i32 }
%struct.IDAadjMemRec = type { double, double, i32, i32, double, i32, double, ptr, i32, ptr, i32, ptr, ptr, i32, i64, i64, ptr, i64, i32, ptr, ptr, ptr, ptr, i32, i32, i32, i32, i32, [6 x ptr], [6 x ptr], [6 x double], ptr, ptr, ptr, ptr }
%struct.IDABMemRec = type { i32, double, ptr, i32, i32, ptr, ptr, ptr, ptr, ptr, ptr, ptr, ptr, ptr, double, ptr, ptr, ptr }

@.str = private unnamed_addr constant [118 x i8] c"generated/home/dtcxzyw/WorkSpace/Projects/compilers/llvm-opt-benchmark/bench/sundials/sundials/src/idas/idas_bbdpre.c\00", align 1
@.str.1 = private unnamed_addr constant [27 x i8] c"Integrator memory is NULL.\00", align 1
@.str.7 = private unnamed_addr constant [51 x i8] c"Illegal attempt to call before calling IDAAdjInit.\00", align 1
@.str.8 = private unnamed_addr constant [25 x i8] c"Illegal value for which.\00", align 1
@__func__.IDABBDPrecReInitB = private unnamed_addr constant [18 x i8] c"IDABBDPrecReInitB\00", align 1

; Function Attrs: nounwind uwtable
define i32 @IDABBDPrecReInitB(ptr noundef %0, i32 noundef %1, i64 noundef %2, i64 noundef %3, double noundef %4) #0 {
  %6 = alloca i32, align 4
  %7 = alloca ptr, align 8
  %8 = alloca i32, align 4
  %9 = alloca i64, align 8
  %10 = alloca i64, align 8
  %11 = alloca double, align 8
  %12 = alloca ptr, align 8
  %13 = alloca ptr, align 8
  %14 = alloca ptr, align 8
  %15 = alloca ptr, align 8
  %16 = alloca i32, align 4
  %17 = alloca i32, align 4
  store ptr %0, ptr %7, align 8, !tbaa !3
  store i32 %1, ptr %8, align 4, !tbaa !52
  store i64 %2, ptr %9, align 8, !tbaa !7
  store i64 %3, ptr %10, align 8, !tbaa !7
  store double %4, ptr %11, align 8, !tbaa !9
  call void @llvm.lifetime.start.p0(i64 8, ptr %12) #6
  call void @llvm.lifetime.start.p0(i64 8, ptr %13) #6
  call void @llvm.lifetime.start.p0(i64 8, ptr %14) #6
  call void @llvm.lifetime.start.p0(i64 8, ptr %15) #6
  call void @llvm.lifetime.start.p0(i64 4, ptr %16) #6
  %18 = load ptr, ptr %7, align 8, !tbaa !3
  %19 = icmp eq ptr %18, null
  br i1 %19, label %20, label %21

20:                                               ; preds = %5
  call void (ptr, i32, i32, ptr, ptr, ptr, ...) @IDAProcessError(ptr noundef null, i32 noundef -1, i32 noundef 821, ptr noundef @__func__.IDABBDPrecReInitB, ptr noundef @.str, ptr noundef @.str.1)
  store i32 -1, ptr %6, align 4
  store i32 1, ptr %17, align 4
  br label %68

21:                                               ; preds = %5
  %22 = load ptr, ptr %7, align 8, !tbaa !3
  store ptr %22, ptr %12, align 8, !tbaa !11
  %23 = load ptr, ptr %12, align 8, !tbaa !11
  %24 = getelementptr inbounds nuw %struct.IDAMemRec, ptr %23, i32 0, i32 240
  %25 = load i32, ptr %24, align 8, !tbaa !76
  %26 = icmp eq i32 %25, 0
  br i1 %26, label %27, label %29

27:                                               ; preds = %21
  %28 = load ptr, ptr %12, align 8, !tbaa !11
  call void (ptr, i32, i32, ptr, ptr, ptr, ...) @IDAProcessError(ptr noundef %28, i32 noundef -101, i32 noundef 830, ptr noundef @__func__.IDABBDPrecReInitB, ptr noundef @.str, ptr noundef @.str.7)
  store i32 -101, ptr %6, align 4
  store i32 1, ptr %17, align 4
  br label %68

29:                                               ; preds = %21
  %30 = load ptr, ptr %12, align 8, !tbaa !11
  %31 = getelementptr inbounds nuw %struct.IDAMemRec, ptr %30, i32 0, i32 239
  %32 = load ptr, ptr %31, align 8, !tbaa !77
  store ptr %32, ptr %13, align 8, !tbaa !78
  %33 = load i32, ptr %8, align 4, !tbaa !52
  %34 = load ptr, ptr %13, align 8, !tbaa !78
  %35 = getelementptr inbounds nuw %struct.IDAadjMemRec, ptr %34, i32 0, i32 8
  %36 = load i32, ptr %35, align 8, !tbaa !79
  %37 = icmp sge i32 %33, %36
  br i1 %37, label %38, label %40

38:                                               ; preds = %29
  %39 = load ptr, ptr %12, align 8, !tbaa !11
  call void (ptr, i32, i32, ptr, ptr, ptr, ...) @IDAProcessError(ptr noundef %39, i32 noundef -3, i32 noundef 839, ptr noundef @__func__.IDABBDPrecReInitB, ptr noundef @.str, ptr noundef @.str.8)
  store i32 -3, ptr %6, align 4
  store i32 1, ptr %17, align 4
  br label %68

40:                                               ; preds = %29
  %41 = load ptr, ptr %13, align 8, !tbaa !78
  %42 = getelementptr inbounds nuw %struct.IDAadjMemRec, ptr %41, i32 0, i32 7
  %43 = load ptr, ptr %42, align 8, !tbaa !84
  store ptr %43, ptr %14, align 8, !tbaa !85
  br label %44

44:                                               ; preds = %54, %40
  %45 = load ptr, ptr %14, align 8, !tbaa !85
  %46 = icmp ne ptr %45, null
  br i1 %46, label %47, label %58

47:                                               ; preds = %44
  %48 = load i32, ptr %8, align 4, !tbaa !52
  %49 = load ptr, ptr %14, align 8, !tbaa !85
  %50 = getelementptr inbounds nuw %struct.IDABMemRec, ptr %49, i32 0, i32 0
  %51 = load i32, ptr %50, align 8, !tbaa !86
  %52 = icmp eq i32 %48, %51
  br i1 %52, label %53, label %54

53:                                               ; preds = %47
  br label %58

54:                                               ; preds = %47
  %55 = load ptr, ptr %14, align 8, !tbaa !85
  %56 = getelementptr inbounds nuw %struct.IDABMemRec, ptr %55, i32 0, i32 17
  %57 = load ptr, ptr %56, align 8, !tbaa !88
  store ptr %57, ptr %14, align 8, !tbaa !85
  br label %44

58:                                               ; preds = %53, %44
  %59 = load ptr, ptr %14, align 8, !tbaa !85
  %60 = getelementptr inbounds nuw %struct.IDABMemRec, ptr %59, i32 0, i32 2
  %61 = load ptr, ptr %60, align 8, !tbaa !89
  store ptr %61, ptr %15, align 8, !tbaa !3
  %62 = load ptr, ptr %15, align 8, !tbaa !3
  %63 = load i64, ptr %9, align 8, !tbaa !7
  %64 = load i64, ptr %10, align 8, !tbaa !7
  %65 = load double, ptr %11, align 8, !tbaa !9
  %66 = call i32 @IDABBDPrecReInit(ptr noundef %62, i64 noundef %63, i64 noundef %64, double noundef %65)
  store i32 %66, ptr %16, align 4, !tbaa !52
  %67 = load i32, ptr %16, align 4, !tbaa !52
  store i32 %67, ptr %6, align 4
  store i32 1, ptr %17, align 4
  br label %68

68:                                               ; preds = %58, %38, %27, %20
  call void @llvm.lifetime.end.p0(i64 4, ptr %16) #6
  call void @llvm.lifetime.end.p0(i64 8, ptr %15) #6
  call void @llvm.lifetime.end.p0(i64 8, ptr %14) #6
  call void @llvm.lifetime.end.p0(i64 8, ptr %13) #6
  call void @llvm.lifetime.end.p0(i64 8, ptr %12) #6
  %69 = load i32, ptr %6, align 4
  ret i32 %69
}